target datalayout = "e-m:e-p270:32:32-p271:32:32-p272:64:64-i64:64-i128:128-f80:128-n8:16:32:64-S128"
target triple = "x86_64-pc-linux-gnu"

%"struct.ozz::animation::TrackTriggeringJob" = type { float, float, float, ptr, ptr }
%"class.ozz::animation::TrackTriggeringJob::Iterator" = type { ptr, float, i64, %"struct.ozz::animation::TrackTriggeringJob::Edge" }
%"struct.ozz::animation::TrackTriggeringJob::Edge" = type { float, i8 }

@_ZN3ozz9animation18TrackTriggeringJob8IteratorC1EPKS1_ = dso_local unnamed_addr alias void (ptr, ptr), ptr @_ZN3ozz9animation18TrackTriggeringJob8IteratorC2EPKS1_

; Function Attrs: mustprogress nounwind uwtable
define linkonce_odr dso_local void @_ZN3ozz9animation18TrackTriggeringJob8IteratorC2EPKS1_NS2_3EndE(ptr noundef nonnull align 8 dereferenceable(32) %0, ptr noundef %1) unnamed_addr #0 comdat align 2 {
  %3 = alloca ptr, align 8
  %4 = alloca ptr, align 8
  store ptr %0, ptr %3, align 8, !tbaa !25
  store ptr %1, ptr %4, align 8, !tbaa !4
  %5 = load ptr, ptr %3, align 8
  %6 = getelementptr inbounds nuw %"class.ozz::animation::TrackTriggeringJob::Iterator", ptr %5, i32 0, i32 0
  %7 = load ptr, ptr %4, align 8, !tbaa !4
  store ptr %7, ptr %6, align 8, !tbaa !26
  %8 = getelementptr inbounds nuw %"class.ozz::animation::TrackTriggeringJob::Iterator", ptr %5, i32 0, i32 1
  store float 0.000000e+00, ptr %8, align 8, !tbaa !29
  %9 = getelementptr inbounds nuw %"class.ozz::animation::TrackTriggeringJob::Iterator", ptr %5, i32 0, i32 2
  store i64 -2, ptr %9, align 8, !tbaa !30
  ret void
}

; Function Attrs: inlinehint mustprogress uwtable
define linkonce_odr dso_local void @_ZNK3ozz9animation18TrackTriggeringJob3endEv(ptr dead_on_unwind noalias writable sret(%"class.ozz::animation::TrackTriggeringJob::Iterator") align 8 %0, ptr noundef nonnull align 8 dereferenceable(32) %1) #3 comdat align 2 {
  %3 = alloca ptr, align 8
  store ptr %1, ptr %3, align 8, !tbaa !4
  %4 = load ptr, ptr %3, align 8
  call void @_ZN3ozz9animation18TrackTriggeringJob8IteratorC2EPKS1_NS2_3EndE(ptr noundef nonnull align 8 dereferenceable(32) %0, ptr noundef %4)
  ret void
}

; Function Attrs: mustprogress nounwind uwtable
define dso_local noundef zeroext i1 @_ZNK3ozz9animation18TrackTriggeringJob8ValidateEv(ptr noundef nonnull align 8 dereferenceable(32) %0) #0 align 2 {
  %2 = alloca ptr, align 8
  %3 = alloca i8, align 1
  store ptr %0, ptr %2, align 8, !tbaa !4
  %4 = load ptr, ptr %2, align 8
  call void @llvm.lifetime.start.p0(i64 1, ptr %3) #7
  store i8 1, ptr %3, align 1, !tbaa !9
  %5 = getelementptr inbounds nuw %"struct.ozz::animation::TrackTriggeringJob", ptr %4, i32 0, i32 3
  %6 = load ptr, ptr %5, align 8, !tbaa !11
  %7 = icmp ne ptr %6, null
  %8 = zext i1 %7 to i32
  %9 = load i8, ptr %3, align 1, !tbaa !9, !range !16, !noundef !17
  %10 = trunc i8 %9 to i1
  %11 = zext i1 %10 to i32
  %12 = and i32 %11, %8
  %13 = icmp ne i32 %12, 0
  %14 = zext i1 %13 to i8
  store i8 %14, ptr %3, align 1, !tbaa !9
  %15 = getelementptr inbounds nuw %"struct.ozz::animation::TrackTriggeringJob", ptr %4, i32 0, i32 4
  %16 = load ptr, ptr %15, align 8, !tbaa !18
  %17 = icmp ne ptr %16, null
  %18 = zext i1 %17 to i32
  %19 = load i8, ptr %3, align 1, !tbaa !9, !range !16, !noundef !17
  %20 = trunc i8 %19 to i1
  %21 = zext i1 %20 to i32
  %22 = and i32 %21, %18
  %23 = icmp ne i32 %22, 0
  %24 = zext i1 %23 to i8
  store i8 %24, ptr %3, align 1, !tbaa !9
  %25 = load i8, ptr %3, align 1, !tbaa !9, !range !16, !noundef !17
  %26 = trunc i8 %25 to i1
  call void @llvm.lifetime.end.p0(i64 1, ptr %3) #7
  ret i1 %26
}

; Function Attrs: mustprogress uwtable
define dso_local noundef zeroext i1 @_ZNK3ozz9animation18TrackTriggeringJob3RunEv(ptr noundef nonnull align 8 dereferenceable(32) %0) #2 align 2 {
  %2 = alloca i1, align 1
  %3 = alloca ptr, align 8
  %4 = alloca %"class.ozz::animation::TrackTriggeringJob::Iterator", align 8
  %5 = alloca %"class.ozz::animation::TrackTriggeringJob::Iterator", align 8
  store ptr %0, ptr %3, align 8, !tbaa !4
  %6 = load ptr, ptr %3, align 8
  %7 = call noundef zeroext i1 @_ZNK3ozz9animation18TrackTriggeringJob8ValidateEv(ptr noundef nonnull align 8 dereferenceable(32) %6)
  br i1 %7, label %9, label %8

8:                                                ; preds = %1
  store i1 false, ptr %2, align 1
  br label %21

9:                                                ; preds = %1
  %10 = getelementptr inbounds nuw %"struct.ozz::animation::TrackTriggeringJob", ptr %6, i32 0, i32 0
  %11 = load float, ptr %10, align 8, !tbaa !19
  %12 = getelementptr inbounds nuw %"struct.ozz::animation::TrackTriggeringJob", ptr %6, i32 0, i32 1
  %13 = load float, ptr %12, align 4, !tbaa !20
  %14 = fcmp oeq float %11, %13
  br i1 %14, label %15, label %18

15:                                               ; preds = %9
  call void @llvm.lifetime.start.p0(i64 32, ptr %4) #7
  call void @_ZNK3ozz9animation18TrackTriggeringJob3endEv(ptr dead_on_unwind writable sret(%"class.ozz::animation::TrackTriggeringJob::Iterator") align 8 %4, ptr noundef nonnull align 8 dereferenceable(32) %6)
  %16 = getelementptr inbounds nuw %"struct.ozz::animation::TrackTriggeringJob", ptr %6, i32 0, i32 4
  %17 = load ptr, ptr %16, align 8, !tbaa !18
  call void @llvm.memcpy.p0.p0.i64(ptr align 8 %17, ptr align 8 %4, i64 32, i1 false), !tbaa.struct !21
  call void @llvm.lifetime.end.p0(i64 32, ptr %4) #7
  store i1 true, ptr %2, align 1
  br label %21

18:                                               ; preds = %9
  call void @llvm.lifetime.start.p0(i64 32, ptr %5) #7
  call void @_ZN3ozz9animation18TrackTriggeringJob8IteratorC1EPKS1_(ptr noundef nonnull align 8 dereferenceable(32) %5, ptr noundef %6)
  %19 = getelementptr inbounds nuw %"struct.ozz::animation::TrackTriggeringJob", ptr %6, i32 0, i32 4
  %20 = load ptr, ptr %19, align 8, !tbaa !18
  call void @llvm.memcpy.p0.p0.i64(ptr align 8 %20, ptr align 8 %5, i64 32, i1 false), !tbaa.struct !21
  call void @llvm.lifetime.end.p0(i64 32, ptr %5) #7
  store i1 true, ptr %2, align 1
  br label %21

21:                                               ; preds = %18, %15, %8
  %22 = load i1, ptr %2, align 1
  ret i1 %22
}