; Function Attrs: mustprogress nofree norecurse nosync nounwind memory(readwrite, inaccessiblemem: none) uwtable
define dso_local noundef zeroext i1 @_ZNK3ozz9animation18TrackTriggeringJob3RunEv(ptr noundef nonnull align 8 dereferenceable(32) %0) local_unnamed_addr #2 align 2 {
  %2 = alloca %"class.ozz::animation::TrackTriggeringJob::Iterator", align 8
  %3 = getelementptr inbounds nuw i8, ptr %0, i64 16
  %4 = load ptr, ptr %3, align 8, !tbaa !4
  %5 = icmp ne ptr %4, null
  %6 = getelementptr inbounds nuw i8, ptr %0, i64 24
  %7 = load ptr, ptr %6, align 8, !tbaa !12
  %8 = icmp ne ptr %7, null
  %9 = and i1 %5, %8
  br i1 %9, label %10, label %27

10:                                               ; preds = %1
  %11 = load float, ptr %0, align 8, !tbaa !13
  %12 = getelementptr inbounds nuw i8, ptr %0, i64 4
  %13 = load float, ptr %12, align 4, !tbaa !14
  %14 = fcmp oeq float %11, %13
  br i1 %14, label %15, label %16

15:                                               ; preds = %10
  store ptr %0, ptr %7, align 8, !tbaa !15
  %.sroa.4.0..sroa_idx = getelementptr inbounds nuw i8, ptr %7, i64 8
  store float 0.000000e+00, ptr %.sroa.4.0..sroa_idx, align 8, !tbaa !17
  %.sroa.52.0..sroa_idx = getelementptr inbounds nuw i8, ptr %7, i64 16
  store i64 -2, ptr %.sroa.52.0..sroa_idx, align 8, !tbaa !18
  br label %27

16:                                               ; preds = %10
  call void @llvm.lifetime.start.p0(i64 32, ptr nonnull %2) #6
  store ptr %0, ptr %2, align 8, !tbaa !20
  %17 = getelementptr inbounds nuw i8, ptr %2, i64 8
  %18 = tail call float @llvm.floor.f32(float %11)
  store float %18, ptr %17, align 8, !tbaa !24
  %19 = fcmp olt float %11, %13
  br i1 %19, label %_ZN3ozz9animation18TrackTriggeringJob8IteratorC2EPKS1_.exit, label %20

20:                                               ; preds = %16
  %21 = getelementptr inbounds nuw i8, ptr %4, i64 16
  %22 = load i64, ptr %21, align 8, !tbaa !25
  %23 = add i64 %22, -1
  br label %_ZN3ozz9animation18TrackTriggeringJob8IteratorC2EPKS1_.exit

_ZN3ozz9animation18TrackTriggeringJob8IteratorC2EPKS1_.exit: ; preds = %16, %20
  %24 = phi i64 [ %23, %20 ], [ 0, %16 ]
  %25 = getelementptr inbounds nuw i8, ptr %2, i64 16
  store i64 %24, ptr %25, align 8, !tbaa !28
  %26 = call noundef nonnull align 8 dereferenceable(32) ptr @_ZN3ozz9animation18TrackTriggeringJob8IteratorppEv(ptr noundef nonnull align 8 dereferenceable(32) %2)
  call void @llvm.memcpy.p0.p0.i64(ptr noundef nonnull align 8 dereferenceable(32) %7, ptr noundef nonnull align 8 dereferenceable(32) %2, i64 32, i1 false), !tbaa.struct !29
  call void @llvm.lifetime.end.p0(i64 32, ptr nonnull %2) #6
  br label %27

27:                                               ; preds = %1, %_ZN3ozz9animation18TrackTriggeringJob8IteratorC2EPKS1_.exit, %15
  ret i1 %9
}